target datalayout = "e-m:e-p270:32:32-p271:32:32-p272:64:64-i64:64-i128:128-f80:128-n8:16:32:64-S128"
target triple = "x86_64-pc-linux-gnu"

%struct._object = type { %union.anon, ptr }
%union.anon = type { i64 }

@_Py_NoneStruct = external global %struct._object, align 8

; Function Attrs: nounwind uwtable
define internal ptr @pymem_buffer_overflow(ptr noundef %0, ptr noundef %1) #0 {
  %3 = alloca ptr, align 8
  %4 = alloca ptr, align 8
  %5 = alloca ptr, align 8
  %6 = alloca ptr, align 8
  %7 = alloca i32, align 4
  store ptr %0, ptr %4, align 8, !tbaa !3
  store ptr %1, ptr %5, align 8, !tbaa !3
  call void @llvm.lifetime.start.p0(i64 8, ptr %6) #6
  %8 = call ptr @PyMem_Malloc(i64 noundef 16)
  store ptr %8, ptr %6, align 8, !tbaa !8
  %9 = load ptr, ptr %6, align 8, !tbaa !8
  %10 = icmp eq ptr %9, null
  br i1 %10, label %11, label %13

11:                                               ; preds = %2
  %12 = call ptr @PyErr_NoMemory()
  store ptr null, ptr %3, align 8
  store i32 1, ptr %7, align 4
  br label %17

13:                                               ; preds = %2
  %14 = load ptr, ptr %6, align 8, !tbaa !8
  %15 = getelementptr i8, ptr %14, i64 16
  store i8 120, ptr %15, align 1, !tbaa !10
  %16 = load ptr, ptr %6, align 8, !tbaa !8
  call void @PyMem_Free(ptr noundef %16)
  store ptr @_Py_NoneStruct, ptr %3, align 8
  store i32 1, ptr %7, align 4
  br label %17

17:                                               ; preds = %13, %11
  call void @llvm.lifetime.end.p0(i64 8, ptr %6) #6
  %18 = load ptr, ptr %3, align 8
  ret ptr %18
}