; Function Attrs: nounwind uwtable
define internal noundef ptr @pymem_buffer_overflow(ptr readnone captures(none) %0, ptr readnone captures(none) %1) #0 {
  %3 = tail call ptr @PyMem_Malloc(i64 noundef 16) #4
  %4 = icmp eq ptr %3, null
  br i1 %4, label %5, label %7

5:                                                ; preds = %2
  %6 = tail call ptr @PyErr_NoMemory() #4
  br label %9

7:                                                ; preds = %2
  %8 = getelementptr i8, ptr %3, i64 16
  store i8 120, ptr %8, align 1, !tbaa !3
  tail call void @PyMem_Free(ptr noundef nonnull %3) #4
  br label %9

9:                                                ; preds = %7, %5
  %.0 = phi ptr [ null, %5 ], [ @_Py_NoneStruct, %7 ]
  ret ptr %.0
}